Certificate:
    Data:
        Version: 3 (0x2)
        Serial Number:
            11:49:cc:ef:b0:94:63:b3:77:af:a7:24:77:a9:30:35
        Signature Algorithm: ecdsa-with-SHA384
        Issuer: C=GB, O=The Brightons, CN=The Brightons Root E2
        Validity
            Not Before: Dec 21 11:43:07 2021 GMT
            Not After : Dec 10 11:43:07 2046 GMT
        Subject: C=GB, O=The Brightons, CN=E2
        Subject Public Key Info:
            Public Key Algorithm: id-ecPublicKey
                Public-Key: (384 bit)
                pub:
                    04:a4:e5:42:38:ce:91:62:e3:01:ad:09:7e:8d:f7:
                    8b:b2:cd:7f:4a:e8:e9:fc:f3:35:ea:6f:ac:33:3c:
                    dd:71:c9:d4:ef:73:02:09:ca:1b:79:77:02:a3:3b:
                    21:6c:00:bb:29:7d:81:02:d2:fe:b5:9a:6f:7c:dd:
                    8d:79:e7:a0:13:28:38:f0:b0:e7:d6:de:d2:ff:df:
                    78:52:2c:ba:6e:c5:84:ae:8c:17:d2:7f:f9:3d:fb:
                    25:8e:0e:aa:21:4a:4c
                ASN1 OID: secp384r1
                NIST CURVE: P-384
        X509v3 extensions:
            X509v3 Basic Constraints: critical
                CA:TRUE, pathlen:0
            X509v3 Subject Key Identifier: 
                2C:59:3E:A2:7B:4B:F8:C1:D4:5A:5E:7C:C7:44:45:59:13:2B:3C:FD
            X509v3 Authority Key Identifier: 
                keyid:EF:64:CB:1F:71:54:2A:5C:76:99:C3:8C:90:66:41:63:1E:19:16:11

            X509v3 Key Usage: critical
                Digital Signature, Certificate Sign, CRL Sign
            Authority Information Access: 
                CA Issuers - URI:http://pki.thebrightons.uk/root-e2.cer

            X509v3 CRL Distribution Points: 

                Full Name:
                  URI:http://pki.thebrightons.uk/root-e2.crl

    Signature Algorithm: ecdsa-with-SHA384
         30:64:02:30:41:8f:19:35:8d:b0:6e:51:bb:70:d7:4e:77:57:
         09:f3:0f:f4:e2:e2:df:82:1c:d4:09:44:b9:44:a0:e1:08:b4:
         88:b2:b7:7a:63:8a:11:98:e0:44:2e:c1:8d:d1:26:29:02:30:
         6e:ad:3d:07:c9:b8:44:42:9b:de:5e:01:45:ca:6e:c9:a9:42:
         93:75:fd:ce:8e:fc:84:1e:24:ab:07:23:1e:f1:2d:f4:a7:d6:
         1a:38:22:df:79:c2:3d:27:67:22:3e:e9
-----BEGIN CERTIFICATE-----
MIICljCCAh2gAwIBAgIQEUnM77CUY7N3r6ckd6kwNTAKBggqhkjOPQQDAzBFMQsw
CQYDVQQGEwJHQjEWMBQGA1UECgwNVGhlIEJyaWdodG9uczEeMBwGA1UEAwwVVGhl
IEJyaWdodG9ucyBSb290IEUyMB4XDTIxMTIyMTExNDMwN1oXDTQ2MTIxMDExNDMw
N1owMjELMAkGA1UEBhMCR0IxFjAUBgNVBAoMDVRoZSBCcmlnaHRvbnMxCzAJBgNV
BAMMAkUyMHYwEAYHKoZIzj0CAQYFK4EEACIDYgAEpOVCOM6RYuMBrQl+jfeLss1/
Sujp/PM16m+sMzzdccnU73MCCcobeXcCozshbAC7KX2BAtL+tZpvfN2NeeegEyg4
8LDn1t7S/994Uiy6bsWErowX0n/5Pfsljg6qIUpMo4HkMIHhMBIGA1UdEwEB/wQI
MAYBAf8CAQAwHQYDVR0OBBYEFCxZPqJ7S/jB1FpefMdERVkTKzz9MB8GA1UdIwQY
MBaAFO9kyx9xVCpcdpnDjJBmQWMeGRYRMA4GA1UdDwEB/wQEAwIBhjBCBggrBgEF
BQcBAQQ2MDQwMgYIKwYBBQUHMAKGJmh0dHA6Ly9wa2kudGhlYnJpZ2h0b25zLnVr
L3Jvb3QtZTIuY2VyMDcGA1UdHwQwMC4wLKAqoCiGJmh0dHA6Ly9wa2kudGhlYnJp
Z2h0b25zLnVrL3Jvb3QtZTIuY3JsMAoGCCqGSM49BAMDA2cAMGQCMEGPGTWNsG5R
u3DXTndXCfMP9OLi34Ic1AlEuUSg4Qi0iLK3emOKEZjgRC7BjdEmKQIwbq09B8m4
REKb3l4BRcpuyalCk3X9zo78hB4kqwcjHvEt9KfWGjgi33nCPSdnIj7p
-----END CERTIFICATE-----
